target datalayout = "e-m:e-p270:32:32-p271:32:32-p272:64:64-i64:64-i128:128-f80:128-n8:16:32:64-S128"
target triple = "x86_64-pc-linux-gnu"

%class.QFlags = type { i32 }
%class.QString = type { %struct.QArrayDataPointer }
%struct.QArrayDataPointer = type { ptr, ptr, i64 }
%class.QRect = type { i32, i32, i32, i32 }
%class.QExplicitlySharedDataPointer = type { ptr }
%class.QPalette = type <{ ptr, i32, [4 x i8] }>
%class.TimeShiftDialog = type { %class.QDialog, ptr, ptr, ptr, %class.QString }
%class.QDialog = type { %class.QWidget }
%class.QWidget = type { %class.QObject, %class.QPaintDevice.base, ptr }
%class.QObject = type { ptr, %class.QScopedPointer }
%class.QScopedPointer = type { ptr }
%class.QPaintDevice.base = type <{ ptr, i16 }>
%class.Ui_TimeShiftDialog = type { ptr, ptr, ptr, ptr, ptr, ptr, ptr, ptr, ptr, ptr, ptr, ptr, ptr, ptr, ptr, ptr, ptr, ptr, ptr, ptr, ptr, ptr, ptr, ptr, ptr, ptr }
%class.QWidgetData = type { i64, i32, %class.QFlags, i32, %class.QRect, [4 x i8], %class.QPalette, %class.QFont, %class.QRect }
%class.QFont = type <{ %class.QExplicitlySharedDataPointer, i32, [4 x i8] }>

; Function Attrs: mustprogress uwtable
define linkonce_odr noundef zeroext i1 @_ZNK7QWidget13testAttributeEN2Qt15WidgetAttributeE(ptr noundef nonnull align 8 dereferenceable(40) %0, i32 noundef %1) #0 comdat align 2 {
  %3 = alloca i1, align 1
  %4 = alloca ptr, align 8
  %5 = alloca i32, align 4
  store ptr %0, ptr %4, align 8
  store i32 %1, ptr %5, align 4
  %6 = load ptr, ptr %4, align 8
  %7 = load i32, ptr %5, align 4
  %8 = icmp slt i32 %7, 32
  br i1 %8, label %9, label %18

9:                                                ; preds = %2
  %10 = getelementptr inbounds %class.QWidget, ptr %6, i32 0, i32 2
  %11 = load ptr, ptr %10, align 8
  %12 = getelementptr inbounds %class.QWidgetData, ptr %11, i32 0, i32 1
  %13 = load i32, ptr %12, align 8
  %14 = load i32, ptr %5, align 4
  %15 = shl i32 1, %14
  %16 = and i32 %13, %15
  %17 = icmp ne i32 %16, 0
  store i1 %17, ptr %3, align 1
  br label %21

18:                                               ; preds = %2
  %19 = load i32, ptr %5, align 4
  %20 = call noundef zeroext i1 @_ZNK7QWidget20testAttribute_helperEN2Qt15WidgetAttributeE(ptr noundef nonnull align 8 dereferenceable(40) %6, i32 noundef %19)
  store i1 %20, ptr %3, align 1
  br label %21

21:                                               ; preds = %18, %9
  %22 = load i1, ptr %3, align 1
  ret i1 %22
}

; Function Attrs: mustprogress uwtable
define linkonce_odr noundef zeroext i1 @_ZNK7QWidget9isEnabledEv(ptr noundef nonnull align 8 dereferenceable(40) %0) #0 comdat align 2 {
  %2 = alloca ptr, align 8
  store ptr %0, ptr %2, align 8
  %3 = load ptr, ptr %2, align 8
  %4 = call noundef zeroext i1 @_ZNK7QWidget13testAttributeEN2Qt15WidgetAttributeE(ptr noundef nonnull align 8 dereferenceable(40) %3, i32 noundef 0)
  %5 = xor i1 %4, true
  ret i1 %5
}

; Function Attrs: mustprogress uwtable
define void @_ZN15TimeShiftDialog34on_setTwoFrameLineEdit_textChangedERK7QString(ptr noundef nonnull align 8 dereferenceable(88) %0, ptr noundef nonnull align 8 dereferenceable(24) %1) #0 align 2 {
  %3 = alloca ptr, align 8
  %4 = alloca ptr, align 8
  store ptr %0, ptr %3, align 8
  store ptr %1, ptr %4, align 8
  %5 = load ptr, ptr %3, align 8
  %6 = getelementptr inbounds %class.TimeShiftDialog, ptr %5, i32 0, i32 1
  %7 = load ptr, ptr %6, align 8
  %8 = getelementptr inbounds %class.Ui_TimeShiftDialog, ptr %7, i32 0, i32 13
  %9 = load ptr, ptr %8, align 8
  call void @_ZN15TimeShiftDialog16checkFrameNumberER14SyntaxLineEdit(ptr noundef nonnull align 8 dereferenceable(88) %5, ptr noundef nonnull align 8 dereferenceable(185) %9)
  %10 = getelementptr inbounds %class.TimeShiftDialog, ptr %5, i32 0, i32 1
  %11 = load ptr, ptr %10, align 8
  %12 = getelementptr inbounds %class.Ui_TimeShiftDialog, ptr %11, i32 0, i32 12
  %13 = load ptr, ptr %12, align 8
  %14 = call noundef zeroext i1 @_ZNK7QWidget9isEnabledEv(ptr noundef nonnull align 8 dereferenceable(40) %13)
  br i1 %14, label %15, label %20

15:                                               ; preds = %2
  %16 = getelementptr inbounds %class.TimeShiftDialog, ptr %5, i32 0, i32 1
  %17 = load ptr, ptr %16, align 8
  %18 = getelementptr inbounds %class.Ui_TimeShiftDialog, ptr %17, i32 0, i32 12
  %19 = load ptr, ptr %18, align 8
  call void @_ZN15QAbstractButton10setCheckedEb(ptr noundef nonnull align 8 dereferenceable(40) %19, i1 noundef zeroext true)
  br label %20

20:                                               ; preds = %15, %2
  call void @_ZN15TimeShiftDialog13enableWidgetsEv(ptr noundef nonnull align 8 dereferenceable(88) %5)
  ret void
}