; Function Attrs: mustprogress uwtable
define void @_ZN15TimeShiftDialog34on_setTwoFrameLineEdit_textChangedERK7QString(ptr noundef nonnull align 8 dereferenceable(88) %0, ptr nocapture noundef nonnull readnone align 8 dereferenceable(24) %1) local_unnamed_addr #0 align 2 {
  %3 = getelementptr inbounds i8, ptr %0, i64 40
  %4 = load ptr, ptr %3, align 8
  %5 = getelementptr inbounds i8, ptr %4, i64 104
  %6 = load ptr, ptr %5, align 8
  tail call void @_ZN15TimeShiftDialog16checkFrameNumberER14SyntaxLineEdit(ptr noundef nonnull align 8 dereferenceable(88) %0, ptr noundef nonnull align 8 dereferenceable(185) %6)
  %7 = load ptr, ptr %3, align 8
  %8 = getelementptr inbounds i8, ptr %7, i64 96
  %9 = load ptr, ptr %8, align 8
  %10 = getelementptr inbounds i8, ptr %9, i64 32
  %11 = load ptr, ptr %10, align 8
  %12 = getelementptr inbounds i8, ptr %11, i64 8
  %13 = load i32, ptr %12, align 8
  %14 = and i32 %13, 1
  %.not.i = icmp eq i32 %14, 0
  br i1 %.not.i, label %15, label %16

15:                                               ; preds = %2
  tail call void @_ZN15QAbstractButton10setCheckedEb(ptr noundef nonnull align 8 dereferenceable(40) %9, i1 noundef zeroext true)
  br label %16

16:                                               ; preds = %15, %2
  tail call void @_ZN15TimeShiftDialog13enableWidgetsEv(ptr noundef nonnull align 8 dereferenceable(88) %0)
  ret void
}